target datalayout = "e-m:e-p270:32:32-p271:32:32-p272:64:64-i64:64-i128:128-f80:128-n8:16:32:64-S128"
target triple = "x86_64-pc-linux-gnu"

@.str.41 = private unnamed_addr constant [8 x i8] c"debug%d\00", align 1
@.str.42 = private unnamed_addr constant [17 x i8] c"log_min_messages\00", align 1
@.str.43 = private unnamed_addr constant [7 x i8] c"notice\00", align 1
@.str.44 = private unnamed_addr constant [16 x i8] c"log_connections\00", align 1
@.str.45 = private unnamed_addr constant [5 x i8] c"true\00", align 1
@.str.46 = private unnamed_addr constant [19 x i8] c"log_disconnections\00", align 1
@.str.47 = private unnamed_addr constant [14 x i8] c"log_statement\00", align 1
@.str.48 = private unnamed_addr constant [4 x i8] c"all\00", align 1
@.str.49 = private unnamed_addr constant [18 x i8] c"debug_print_parse\00", align 1
@.str.50 = private unnamed_addr constant [17 x i8] c"debug_print_plan\00", align 1
@.str.51 = private unnamed_addr constant [22 x i8] c"debug_print_rewritten\00", align 1

; Function Attrs: nounwind uwtable
define dso_local void @set_debug_options(i32 noundef %0, i32 noundef %1, i32 noundef %2) #0 {
  %4 = alloca i32, align 4
  %5 = alloca i32, align 4
  %6 = alloca i32, align 4
  %7 = alloca [64 x i8], align 16
  store i32 %0, ptr %4, align 4
  store i32 %1, ptr %5, align 4
  store i32 %2, ptr %6, align 4
  %8 = load i32, ptr %4, align 4
  %9 = icmp sgt i32 %8, 0
  br i1 %9, label %10, label %17

10:                                               ; preds = %3
  call void @llvm.lifetime.start.p0(i64 64, ptr %7) #16
  %11 = getelementptr inbounds [64 x i8], ptr %7, i64 0, i64 0
  %12 = load i32, ptr %4, align 4
  %13 = call i32 (ptr, ptr, ...) @pg_sprintf(ptr noundef %11, ptr noundef @.str.41, i32 noundef %12)
  %14 = getelementptr inbounds [64 x i8], ptr %7, i64 0, i64 0
  %15 = load i32, ptr %5, align 4
  %16 = load i32, ptr %6, align 4
  call void @SetConfigOption(ptr noundef @.str.42, ptr noundef %14, i32 noundef %15, i32 noundef %16)
  call void @llvm.lifetime.end.p0(i64 64, ptr %7) #16
  br label %20

17:                                               ; preds = %3
  %18 = load i32, ptr %5, align 4
  %19 = load i32, ptr %6, align 4
  call void @SetConfigOption(ptr noundef @.str.42, ptr noundef @.str.43, i32 noundef %18, i32 noundef %19)
  br label %20

20:                                               ; preds = %17, %10
  %21 = load i32, ptr %4, align 4
  %22 = icmp sge i32 %21, 1
  br i1 %22, label %23, label %31

23:                                               ; preds = %20
  %24 = load i32, ptr %5, align 4
  %25 = icmp eq i32 %24, 1
  br i1 %25, label %26, label %31

26:                                               ; preds = %23
  %27 = load i32, ptr %5, align 4
  %28 = load i32, ptr %6, align 4
  call void @SetConfigOption(ptr noundef @.str.44, ptr noundef @.str.45, i32 noundef %27, i32 noundef %28)
  %29 = load i32, ptr %5, align 4
  %30 = load i32, ptr %6, align 4
  call void @SetConfigOption(ptr noundef @.str.46, ptr noundef @.str.45, i32 noundef %29, i32 noundef %30)
  br label %31

31:                                               ; preds = %26, %23, %20
  %32 = load i32, ptr %4, align 4
  %33 = icmp sge i32 %32, 2
  br i1 %33, label %34, label %37

34:                                               ; preds = %31
  %35 = load i32, ptr %5, align 4
  %36 = load i32, ptr %6, align 4
  call void @SetConfigOption(ptr noundef @.str.47, ptr noundef @.str.48, i32 noundef %35, i32 noundef %36)
  br label %37

37:                                               ; preds = %34, %31
  %38 = load i32, ptr %4, align 4
  %39 = icmp sge i32 %38, 3
  br i1 %39, label %40, label %43

40:                                               ; preds = %37
  %41 = load i32, ptr %5, align 4
  %42 = load i32, ptr %6, align 4
  call void @SetConfigOption(ptr noundef @.str.49, ptr noundef @.str.45, i32 noundef %41, i32 noundef %42)
  br label %43

43:                                               ; preds = %40, %37
  %44 = load i32, ptr %4, align 4
  %45 = icmp sge i32 %44, 4
  br i1 %45, label %46, label %49

46:                                               ; preds = %43
  %47 = load i32, ptr %5, align 4
  %48 = load i32, ptr %6, align 4
  call void @SetConfigOption(ptr noundef @.str.50, ptr noundef @.str.45, i32 noundef %47, i32 noundef %48)
  br label %49

49:                                               ; preds = %46, %43
  %50 = load i32, ptr %4, align 4
  %51 = icmp sge i32 %50, 5
  br i1 %51, label %52, label %55

52:                                               ; preds = %49
  %53 = load i32, ptr %5, align 4
  %54 = load i32, ptr %6, align 4
  call void @SetConfigOption(ptr noundef @.str.51, ptr noundef @.str.45, i32 noundef %53, i32 noundef %54)
  br label %55

55:                                               ; preds = %52, %49
  ret void
}