; Function Attrs: nounwind uwtable
define dso_local void @set_debug_options(i32 noundef %0, i32 noundef %1, i32 noundef %2) local_unnamed_addr #0 {
  %4 = alloca [64 x i8], align 16
  %5 = icmp sgt i32 %0, 0
  br i1 %5, label %6, label %.thread27

.thread27:                                        ; preds = %3
  tail call void @SetConfigOption(ptr noundef nonnull @.str.42, ptr noundef nonnull @.str.43, i32 noundef %1, i32 noundef %2) #22
  br label %.thread32

6:                                                ; preds = %3
  call void @llvm.lifetime.start.p0(i64 64, ptr nonnull %4) #22
  %7 = call i32 (ptr, ptr, ...) @pg_sprintf(ptr noundef nonnull %4, ptr noundef nonnull @.str.41, i32 noundef %0) #22
  call void @SetConfigOption(ptr noundef nonnull @.str.42, ptr noundef nonnull %4, i32 noundef %1, i32 noundef %2) #22
  call void @llvm.lifetime.end.p0(i64 64, ptr nonnull %4) #22
  %8 = icmp eq i32 %1, 1
  br i1 %8, label %9, label %10

9:                                                ; preds = %6
  call void @SetConfigOption(ptr noundef nonnull @.str.44, ptr noundef nonnull @.str.45, i32 noundef 1, i32 noundef %2) #22
  call void @SetConfigOption(ptr noundef nonnull @.str.46, ptr noundef nonnull @.str.45, i32 noundef 1, i32 noundef %2) #22
  br label %10

10:                                               ; preds = %9, %6
  %.not = icmp eq i32 %0, 1
  br i1 %.not, label %.thread32, label %11

11:                                               ; preds = %10
  call void @SetConfigOption(ptr noundef nonnull @.str.47, ptr noundef nonnull @.str.48, i32 noundef %1, i32 noundef %2) #22
  %12 = icmp samesign ugt i32 %0, 2
  br i1 %12, label %13, label %.thread32

13:                                               ; preds = %11
  call void @SetConfigOption(ptr noundef nonnull @.str.49, ptr noundef nonnull @.str.45, i32 noundef %1, i32 noundef %2) #22
  %.not33 = icmp eq i32 %0, 3
  br i1 %.not33, label %.thread32, label %14

14:                                               ; preds = %13
  call void @SetConfigOption(ptr noundef nonnull @.str.50, ptr noundef nonnull @.str.45, i32 noundef %1, i32 noundef %2) #22
  %15 = icmp samesign ugt i32 %0, 4
  br i1 %15, label %16, label %.thread32

16:                                               ; preds = %14
  call void @SetConfigOption(ptr noundef nonnull @.str.51, ptr noundef nonnull @.str.45, i32 noundef %1, i32 noundef %2) #22
  br label %.thread32

.thread32:                                        ; preds = %10, %.thread27, %11, %13, %16, %14
  ret void
}